target datalayout = "e-m:e-p270:32:32-p271:32:32-p272:64:64-i64:64-i128:128-f80:128-n8:16:32:64-S128"
target triple = "x86_64-pc-linux-gnu"

%struct.job_container_ops = type { ptr, ptr, ptr, ptr, ptr, ptr, ptr }

@g_container_context_num = internal global i32 -1, align 4
@ops = internal global ptr null, align 8

; Function Attrs: nounwind uwtable
define dso_local i32 @container_g_join_external(i32 noundef %0) #0 {
  %2 = alloca i32, align 4
  %3 = alloca i32, align 4
  %4 = alloca i32, align 4
  store i32 %0, ptr %2, align 4
  call void @llvm.lifetime.start.p0(i64 4, ptr %3) #6
  call void @llvm.lifetime.start.p0(i64 4, ptr %4) #6
  store i32 0, ptr %4, align 4
  store i32 0, ptr %3, align 4
  br label %5

5:                                                ; preds = %23, %1
  %6 = load i32, ptr %3, align 4
  %7 = load i32, ptr @g_container_context_num, align 4
  %8 = icmp slt i32 %6, %7
  br i1 %8, label %9, label %12

9:                                                ; preds = %5
  %10 = load i32, ptr %4, align 4
  %11 = icmp eq i32 %10, 0
  br label %12

12:                                               ; preds = %9, %5
  %13 = phi i1 [ false, %5 ], [ %11, %9 ]
  br i1 %13, label %14, label %26

14:                                               ; preds = %12
  %15 = load ptr, ptr @ops, align 8
  %16 = load i32, ptr %3, align 4
  %17 = sext i32 %16 to i64
  %18 = getelementptr inbounds %struct.job_container_ops, ptr %15, i64 %17
  %19 = getelementptr inbounds nuw %struct.job_container_ops, ptr %18, i32 0, i32 1
  %20 = load ptr, ptr %19, align 8
  %21 = load i32, ptr %2, align 4
  %22 = call i32 %20(i32 noundef %21)
  store i32 %22, ptr %4, align 4
  br label %23

23:                                               ; preds = %14
  %24 = load i32, ptr %3, align 4
  %25 = add nsw i32 %24, 1
  store i32 %25, ptr %3, align 4
  br label %5, !llvm.loop !15

26:                                               ; preds = %12
  %27 = load i32, ptr %4, align 4
  call void @llvm.lifetime.end.p0(i64 4, ptr %4) #6
  call void @llvm.lifetime.end.p0(i64 4, ptr %3) #6
  ret i32 %27
}